target datalayout = "e-m:e-p270:32:32-p271:32:32-p272:64:64-i64:64-i128:128-f80:128-n8:16:32:64-S128"
target triple = "x86_64-unknown-linux-gnu"

%"class.icu_75::UObject" = type { ptr }
%"class.icu_75::UFormattedListImpl" = type { %"struct.icu_75::UFormattedValueImpl", %"class.icu_75::IcuCApiHelper.0", [4 x i8], %"class.icu_75::FormattedList" }
%"struct.icu_75::UFormattedValueImpl" = type { %"class.icu_75::IcuCApiHelper", ptr }
%"class.icu_75::IcuCApiHelper" = type { i32 }
%"class.icu_75::IcuCApiHelper.0" = type { i32 }
%"class.icu_75::FormattedList" = type <{ %"class.icu_75::FormattedValue", ptr, i32, [4 x i8] }>
%"class.icu_75::FormattedValue" = type { ptr }
%"class.icu_75::UnicodeString" = type { %"class.icu_75::Replaceable", %"union.icu_75::UnicodeString::StackBufferOrFields" }
%"class.icu_75::Replaceable" = type { %"class.icu_75::UObject" }
%"union.icu_75::UnicodeString::StackBufferOrFields" = type { %struct.anon.1, [32 x i8] }
%struct.anon.1 = type { i16, i32, i32, ptr }
%"class.icu_75::LocalArray" = type { %"class.icu_75::LocalPointerBase.2" }
%"class.icu_75::LocalPointerBase.2" = type { ptr }
%struct.anon = type { i16, [27 x i16] }

@_ZTVN6icu_7513UnicodeStringE = external unnamed_addr constant { [13 x ptr] }, align 8
@_ZTVN6icu_7511ReplaceableE = external unnamed_addr constant { [13 x ptr] }, align 8
@_ZTVN6icu_757UObjectE = external unnamed_addr constant { [5 x ptr] }, align 8

; Function Attrs: mustprogress nounwind uwtable
define linkonce_odr void @_ZN6icu_757UObjectC2Ev(ptr noundef nonnull align 8 dereferenceable(8) %this) unnamed_addr #0 comdat align 2 {
entry:
  %this.addr = alloca ptr, align 8
  store ptr %this, ptr %this.addr, align 8
  %this1 = load ptr, ptr %this.addr, align 8
  store ptr getelementptr inbounds ({ [5 x ptr] }, ptr @_ZTVN6icu_757UObjectE, i32 0, i32 0, i32 2), ptr %this1, align 8
  ret void
}

; Function Attrs: mustprogress nounwind uwtable
define linkonce_odr void @_ZN6icu_7516LocalPointerBaseINS_13UnicodeStringEEC2EPS1_(ptr noundef nonnull align 8 dereferenceable(8) %this, ptr noundef %p) unnamed_addr #0 comdat align 2 {
entry:
  %this.addr = alloca ptr, align 8
  %p.addr = alloca ptr, align 8
  store ptr %this, ptr %this.addr, align 8
  store ptr %p, ptr %p.addr, align 8
  %this1 = load ptr, ptr %this.addr, align 8
  %ptr = getelementptr inbounds %"class.icu_75::LocalPointerBase.2", ptr %this1, i32 0, i32 0
  %0 = load ptr, ptr %p.addr, align 8
  store ptr %0, ptr %ptr, align 8
  ret void
}

; Function Attrs: mustprogress nounwind uwtable
define linkonce_odr void @_ZN6icu_7511ReplaceableC2Ev(ptr noundef nonnull align 8 dereferenceable(8) %this) unnamed_addr #0 comdat align 2 {
entry:
  %this.addr = alloca ptr, align 8
  store ptr %this, ptr %this.addr, align 8
  %this1 = load ptr, ptr %this.addr, align 8
  call void @_ZN6icu_757UObjectC2Ev(ptr noundef nonnull align 8 dereferenceable(8) %this1) #8
  store ptr getelementptr inbounds ({ [13 x ptr] }, ptr @_ZTVN6icu_7511ReplaceableE, i32 0, i32 0, i32 2), ptr %this1, align 8
  ret void
}

; Function Attrs: mustprogress nounwind uwtable
define linkonce_odr noundef ptr @_ZN6icu_7513IcuCApiHelperI14UFormattedListNS_18UFormattedListImplELi1179407188EE8validateEPKS1_R10UErrorCode(ptr noundef %input, ptr noundef nonnull align 4 dereferenceable(4) %status) #0 comdat align 2 {
entry:
  %retval = alloca ptr, align 8
  %input.addr = alloca ptr, align 8
  %status.addr = alloca ptr, align 8
  %impl = alloca ptr, align 8
  store ptr %input, ptr %input.addr, align 8
  store ptr %status, ptr %status.addr, align 8
  %0 = load ptr, ptr %status.addr, align 8
  %1 = load i32, ptr %0, align 4
  %call = call noundef signext i8 @_ZL9U_FAILURE10UErrorCode(i32 noundef %1)
  %tobool = icmp ne i8 %call, 0
  br i1 %tobool, label %if.then, label %if.end

if.then:                                          ; preds = %entry
  store ptr null, ptr %retval, align 8
  br label %return

if.end:                                           ; preds = %entry
  %2 = load ptr, ptr %input.addr, align 8
  %cmp = icmp eq ptr %2, null
  br i1 %cmp, label %if.then1, label %if.end2

if.then1:                                         ; preds = %if.end
  %3 = load ptr, ptr %status.addr, align 8
  store i32 1, ptr %3, align 4
  store ptr null, ptr %retval, align 8
  br label %return

if.end2:                                          ; preds = %if.end
  %4 = load ptr, ptr %input.addr, align 8
  store ptr %4, ptr %impl, align 8
  %5 = load ptr, ptr %impl, align 8
  %6 = icmp eq ptr %5, null
  br i1 %6, label %cast.end, label %cast.notnull

cast.notnull:                                     ; preds = %if.end2
  %add.ptr = getelementptr inbounds i8, ptr %5, i64 16
  br label %cast.end

cast.end:                                         ; preds = %cast.notnull, %if.end2
  %cast.result = phi ptr [ %add.ptr, %cast.notnull ], [ null, %if.end2 ]
  %fMagic = getelementptr inbounds %"class.icu_75::IcuCApiHelper.0", ptr %cast.result, i32 0, i32 0
  %7 = load i32, ptr %fMagic, align 4
  %cmp3 = icmp ne i32 %7, 1179407188
  br i1 %cmp3, label %if.then4, label %if.end5

if.then4:                                         ; preds = %cast.end
  %8 = load ptr, ptr %status.addr, align 8
  store i32 3, ptr %8, align 4
  store ptr null, ptr %retval, align 8
  br label %return

if.end5:                                          ; preds = %cast.end
  %9 = load ptr, ptr %impl, align 8
  store ptr %9, ptr %retval, align 8
  br label %return

return:                                           ; preds = %if.end5, %if.then4, %if.then1, %if.then
  %10 = load ptr, ptr %retval, align 8
  ret ptr %10
}

; Function Attrs: mustprogress uwtable
define linkonce_odr void @_ZN6icu_7510LocalArrayINS_13UnicodeStringEEC2EPS1_(ptr noundef nonnull align 8 dereferenceable(8) %this, ptr noundef %p) unnamed_addr #1 comdat align 2 {
entry:
  %this.addr = alloca ptr, align 8
  %p.addr = alloca ptr, align 8
  store ptr %this, ptr %this.addr, align 8
  store ptr %p, ptr %p.addr, align 8
  %this1 = load ptr, ptr %this.addr, align 8
  %0 = load ptr, ptr %p.addr, align 8
  call void @_ZN6icu_7516LocalPointerBaseINS_13UnicodeStringEEC2EPS1_(ptr noundef nonnull align 8 dereferenceable(8) %this1, ptr noundef %0)
  ret void
}

; Function Attrs: mustprogress uwtable
define linkonce_odr void @_ZN6icu_7513UnicodeStringC2Ev(ptr noundef nonnull align 8 dereferenceable(64) %this) unnamed_addr #1 comdat align 2 {
entry:
  %this.addr = alloca ptr, align 8
  store ptr %this, ptr %this.addr, align 8
  %this1 = load ptr, ptr %this.addr, align 8
  call void @_ZN6icu_7511ReplaceableC2Ev(ptr noundef nonnull align 8 dereferenceable(8) %this1)
  store ptr getelementptr inbounds ({ [13 x ptr] }, ptr @_ZTVN6icu_7513UnicodeStringE, i32 0, i32 0, i32 2), ptr %this1, align 8
  %fUnion2 = getelementptr inbounds %"class.icu_75::UnicodeString", ptr %this1, i32 0, i32 1
  %fLengthAndFlags = getelementptr inbounds %struct.anon, ptr %fUnion2, i32 0, i32 0
  store i16 2, ptr %fLengthAndFlags, align 8
  ret void
}

; Function Attrs: mustprogress nounwind uwtable
define internal noundef signext i8 @_ZL9U_FAILURE10UErrorCode(i32 noundef %code) #0 {
entry:
  %code.addr = alloca i32, align 4
  store i32 %code, ptr %code.addr, align 4
  %0 = load i32, ptr %code.addr, align 4
  %cmp = icmp sgt i32 %0, 0
  %conv = zext i1 %cmp to i8
  ret i8 %conv
}

; Function Attrs: mustprogress nounwind uwtable
define linkonce_odr noundef ptr @_ZN6icu_7513IcuCApiHelperI14UFormattedListNS_18UFormattedListImplELi1179407188EE8validateEPS1_R10UErrorCode(ptr noundef %input, ptr noundef nonnull align 4 dereferenceable(4) %status) #0 comdat align 2 {
entry:
  %input.addr = alloca ptr, align 8
  %status.addr = alloca ptr, align 8
  %constInput = alloca ptr, align 8
  %validated = alloca ptr, align 8
  store ptr %input, ptr %input.addr, align 8
  store ptr %status, ptr %status.addr, align 8
  %0 = load ptr, ptr %input.addr, align 8
  store ptr %0, ptr %constInput, align 8
  %1 = load ptr, ptr %constInput, align 8
  %2 = load ptr, ptr %status.addr, align 8
  %call = call noundef ptr @_ZN6icu_7513IcuCApiHelperI14UFormattedListNS_18UFormattedListImplELi1179407188EE8validateEPKS1_R10UErrorCode(ptr noundef %1, ptr noundef nonnull align 4 dereferenceable(4) %2)
  store ptr %call, ptr %validated, align 8
  %3 = load ptr, ptr %validated, align 8
  ret ptr %3
}

; Function Attrs: mustprogress uwtable
define void @ulistfmt_formatStringsToResult_75(ptr noundef %listfmt, ptr noundef %strings, ptr noundef %stringLengths, i32 noundef %stringCount, ptr noundef %uresult, ptr noundef %status) #1 personality ptr @__gxx_personality_v0 {
entry:
  %listfmt.addr = alloca ptr, align 8
  %strings.addr = alloca ptr, align 8
  %stringLengths.addr = alloca ptr, align 8
  %stringCount.addr = alloca i32, align 4
  %uresult.addr = alloca ptr, align 8
  %status.addr = alloca ptr, align 8
  %result = alloca ptr, align 8
  %length4StackBuffer = alloca [4 x %"class.icu_75::UnicodeString"], align 16
  %exn.slot = alloca ptr, align 8
  %ehselector.slot = alloca i32, align 4
  %maybeOwner = alloca %"class.icu_75::LocalArray", align 8
  %ustrings = alloca ptr, align 8
  %cleanup.dest.slot = alloca i32, align 4
  %ref.tmp = alloca %"class.icu_75::FormattedList", align 8
  store ptr %listfmt, ptr %listfmt.addr, align 8
  store ptr %strings, ptr %strings.addr, align 8
  store ptr %stringLengths, ptr %stringLengths.addr, align 8
  store i32 %stringCount, ptr %stringCount.addr, align 4
  store ptr %uresult, ptr %uresult.addr, align 8
  store ptr %status, ptr %status.addr, align 8
  %0 = load ptr, ptr %uresult.addr, align 8
  %1 = load ptr, ptr %status.addr, align 8
  %call = call noundef ptr @_ZN6icu_7513IcuCApiHelperI14UFormattedListNS_18UFormattedListImplELi1179407188EE8validateEPS1_R10UErrorCode(ptr noundef %0, ptr noundef nonnull align 4 dereferenceable(4) %1)
  store ptr %call, ptr %result, align 8
  %2 = load ptr, ptr %status.addr, align 8
  %3 = load i32, ptr %2, align 4
  %call1 = call noundef signext i8 @_ZL9U_FAILURE10UErrorCode(i32 noundef %3)
  %tobool = icmp ne i8 %call1, 0
  br i1 %tobool, label %if.then, label %if.end

if.then:                                          ; preds = %entry
  br label %cleanup.cont

if.end:                                           ; preds = %entry
  %array.begin = getelementptr inbounds [4 x %"class.icu_75::UnicodeString"], ptr %length4StackBuffer, i32 0, i32 0
  %arrayctor.end = getelementptr inbounds %"class.icu_75::UnicodeString", ptr %array.begin, i64 4
  br label %arrayctor.loop

arrayctor.loop:                                   ; preds = %invoke.cont, %if.end
  %arrayctor.cur = phi ptr [ %array.begin, %if.end ], [ %arrayctor.next, %invoke.cont ]
  invoke void @_ZN6icu_7513UnicodeStringC2Ev(ptr noundef nonnull align 8 dereferenceable(64) %arrayctor.cur)
          to label %invoke.cont unwind label %lpad

invoke.cont:                                      ; preds = %arrayctor.loop
  %arrayctor.next = getelementptr inbounds %"class.icu_75::UnicodeString", ptr %arrayctor.cur, i64 1
  %arrayctor.done = icmp eq ptr %arrayctor.next, %arrayctor.end
  br i1 %arrayctor.done, label %arrayctor.cont, label %arrayctor.loop

arrayctor.cont:                                   ; preds = %invoke.cont
  invoke void @_ZN6icu_7510LocalArrayINS_13UnicodeStringEEC2EPS1_(ptr noundef nonnull align 8 dereferenceable(8) %maybeOwner, ptr noundef null)
          to label %invoke.cont4 unwind label %lpad3

invoke.cont4:                                     ; preds = %arrayctor.cont
  %4 = load ptr, ptr %strings.addr, align 8
  %5 = load ptr, ptr %stringLengths.addr, align 8
  %6 = load i32, ptr %stringCount.addr, align 4
  %arraydecay = getelementptr inbounds [4 x %"class.icu_75::UnicodeString"], ptr %length4StackBuffer, i64 0, i64 0
  %7 = load ptr, ptr %status.addr, align 8
  %call7 = invoke noundef ptr @_ZL17getUnicodeStringsPKPKDsPKiiPN6icu_7513UnicodeStringERNS5_10LocalArrayIS6_EER10UErrorCode(ptr noundef %4, ptr noundef %5, i32 noundef %6, ptr noundef %arraydecay, ptr noundef nonnull align 8 dereferenceable(8) %maybeOwner, ptr noundef nonnull align 4 dereferenceable(4) %7)
          to label %invoke.cont6 unwind label %lpad5

invoke.cont6:                                     ; preds = %invoke.cont4
  store ptr %call7, ptr %ustrings, align 8
  %8 = load ptr, ptr %status.addr, align 8
  %9 = load i32, ptr %8, align 4
  %call9 = invoke noundef signext i8 @_ZL9U_FAILURE10UErrorCode(i32 noundef %9)
          to label %invoke.cont8 unwind label %lpad5

invoke.cont8:                                     ; preds = %invoke.cont6
  %tobool10 = icmp ne i8 %call9, 0
  br i1 %tobool10, label %if.then11, label %if.end12

if.then11:                                        ; preds = %invoke.cont8
  store i32 1, ptr %cleanup.dest.slot, align 4
  br label %cleanup

lpad:                                             ; preds = %arrayctor.loop
  %10 = landingpad { ptr, i32 }
          cleanup
  %11 = extractvalue { ptr, i32 } %10, 0
  store ptr %11, ptr %exn.slot, align 8
  %12 = extractvalue { ptr, i32 } %10, 1
  store i32 %12, ptr %ehselector.slot, align 4
  %arraydestroy.isempty = icmp eq ptr %array.begin, %arrayctor.cur
  br i1 %arraydestroy.isempty, label %arraydestroy.done2, label %arraydestroy.body

arraydestroy.body:                                ; preds = %arraydestroy.body, %lpad
  %arraydestroy.elementPast = phi ptr [ %arrayctor.cur, %lpad ], [ %arraydestroy.element, %arraydestroy.body ]
  %arraydestroy.element = getelementptr inbounds %"class.icu_75::UnicodeString", ptr %arraydestroy.elementPast, i64 -1
  call void @_ZN6icu_7513UnicodeStringD1Ev(ptr noundef nonnull align 8 dereferenceable(64) %arraydestroy.element) #8
  %arraydestroy.done = icmp eq ptr %arraydestroy.element, %array.begin
  br i1 %arraydestroy.done, label %arraydestroy.done2, label %arraydestroy.body

arraydestroy.done2:                               ; preds = %arraydestroy.body, %lpad
  br label %eh.resume

lpad3:                                            ; preds = %arrayctor.cont
  %13 = landingpad { ptr, i32 }
          cleanup
  %14 = extractvalue { ptr, i32 } %13, 0
  store ptr %14, ptr %exn.slot, align 8
  %15 = extractvalue { ptr, i32 } %13, 1
  store i32 %15, ptr %ehselector.slot, align 4
  br label %ehcleanup

lpad5:                                            ; preds = %if.end12, %invoke.cont6, %invoke.cont4
  %16 = landingpad { ptr, i32 }
          cleanup
  %17 = extractvalue { ptr, i32 } %16, 0
  store ptr %17, ptr %exn.slot, align 8
  %18 = extractvalue { ptr, i32 } %16, 1
  store i32 %18, ptr %ehselector.slot, align 4
  call void @_ZN6icu_7510LocalArrayINS_13UnicodeStringEED2Ev(ptr noundef nonnull align 8 dereferenceable(8) %maybeOwner) #8
  br label %ehcleanup

if.end12:                                         ; preds = %invoke.cont8
  %19 = load ptr, ptr %listfmt.addr, align 8
  %20 = load ptr, ptr %ustrings, align 8
  %21 = load i32, ptr %stringCount.addr, align 4
  %22 = load ptr, ptr %status.addr, align 8
  invoke void @_ZNK6icu_7513ListFormatter20formatStringsToValueEPKNS_13UnicodeStringEiR10UErrorCode(ptr sret(%"class.icu_75::FormattedList") align 8 %ref.tmp, ptr noundef nonnull align 8 dereferenceable(24) %19, ptr noundef %20, i32 noundef %21, ptr noundef nonnull align 4 dereferenceable(4) %22)
          to label %invoke.cont13 unwind label %lpad5

invoke.cont13:                                    ; preds = %if.end12
  %23 = load ptr, ptr %result, align 8
  %fImpl = getelementptr inbounds %"class.icu_75::UFormattedListImpl", ptr %23, i32 0, i32 3
  %call14 = call noundef nonnull align 8 dereferenceable(20) ptr @_ZN6icu_7513FormattedListaSEOS0_(ptr noundef nonnull align 8 dereferenceable(20) %fImpl, ptr noundef nonnull align 8 dereferenceable(20) %ref.tmp) #8
  call void @_ZN6icu_7513FormattedListD1Ev(ptr noundef nonnull align 8 dereferenceable(20) %ref.tmp) #8
  store i32 0, ptr %cleanup.dest.slot, align 4
  br label %cleanup

cleanup:                                          ; preds = %invoke.cont13, %if.then11
  call void @_ZN6icu_7510LocalArrayINS_13UnicodeStringEED2Ev(ptr noundef nonnull align 8 dereferenceable(8) %maybeOwner) #8
  %array.begin16 = getelementptr inbounds [4 x %"class.icu_75::UnicodeString"], ptr %length4StackBuffer, i32 0, i32 0
  %24 = getelementptr inbounds %"class.icu_75::UnicodeString", ptr %array.begin16, i64 4
  br label %arraydestroy.body17

arraydestroy.body17:                              ; preds = %arraydestroy.body17, %cleanup
  %arraydestroy.elementPast18 = phi ptr [ %24, %cleanup ], [ %arraydestroy.element19, %arraydestroy.body17 ]
  %arraydestroy.element19 = getelementptr inbounds %"class.icu_75::UnicodeString", ptr %arraydestroy.elementPast18, i64 -1
  call void @_ZN6icu_7513UnicodeStringD1Ev(ptr noundef nonnull align 8 dereferenceable(64) %arraydestroy.element19) #8
  %arraydestroy.done20 = icmp eq ptr %arraydestroy.element19, %array.begin16
  br i1 %arraydestroy.done20, label %arraydestroy.done21, label %arraydestroy.body17

arraydestroy.done21:                              ; preds = %arraydestroy.body17
  %cleanup.dest = load i32, ptr %cleanup.dest.slot, align 4
  switch i32 %cleanup.dest, label %unreachable [
    i32 0, label %cleanup.cont
    i32 1, label %cleanup.cont
  ]

cleanup.cont:                                     ; preds = %arraydestroy.done21, %arraydestroy.done21, %if.then
  ret void

ehcleanup:                                        ; preds = %lpad5, %lpad3
  %array.begin22 = getelementptr inbounds [4 x %"class.icu_75::UnicodeString"], ptr %length4StackBuffer, i32 0, i32 0
  %25 = getelementptr inbounds %"class.icu_75::UnicodeString", ptr %array.begin22, i64 4
  br label %arraydestroy.body23

arraydestroy.body23:                              ; preds = %arraydestroy.body23, %ehcleanup
  %arraydestroy.elementPast24 = phi ptr [ %25, %ehcleanup ], [ %arraydestroy.element25, %arraydestroy.body23 ]
  %arraydestroy.element25 = getelementptr inbounds %"class.icu_75::UnicodeString", ptr %arraydestroy.elementPast24, i64 -1
  call void @_ZN6icu_7513UnicodeStringD1Ev(ptr noundef nonnull align 8 dereferenceable(64) %arraydestroy.element25) #8
  %arraydestroy.done26 = icmp eq ptr %arraydestroy.element25, %array.begin22
  br i1 %arraydestroy.done26, label %arraydestroy.done27, label %arraydestroy.body23

arraydestroy.done27:                              ; preds = %arraydestroy.body23
  br label %eh.resume

eh.resume:                                        ; preds = %arraydestroy.done27, %arraydestroy.done2
  %exn = load ptr, ptr %exn.slot, align 8
  %sel = load i32, ptr %ehselector.slot, align 4
  %lpad.val = insertvalue { ptr, i32 } poison, ptr %exn, 0
  %lpad.val28 = insertvalue { ptr, i32 } %lpad.val, i32 %sel, 1
  resume { ptr, i32 } %lpad.val28

unreachable:                                      ; preds = %arraydestroy.done21
  unreachable
}