; Function Attrs: mustprogress uwtable
define void @ulistfmt_formatStringsToResult_75(ptr noundef %listfmt, ptr noundef %strings, ptr noundef %stringLengths, i32 noundef %stringCount, ptr noundef %uresult, ptr noundef %status) local_unnamed_addr #1 personality ptr @__gxx_personality_v0 {
entry:
  %length4StackBuffer = alloca [4 x %"class.icu_75::UnicodeString"], align 16
  %maybeOwner = alloca %"class.icu_75::LocalArray", align 8
  %ref.tmp = alloca %"class.icu_75::FormattedList", align 8
  %0 = load i32, ptr %status, align 4
  %cmp.i.i.i = icmp slt i32 %0, 1
  br i1 %cmp.i.i.i, label %if.end.i.i, label %cleanup.cont

if.end.i.i:                                       ; preds = %entry
  %cmp.i.i = icmp eq ptr %uresult, null
  br i1 %cmp.i.i, label %return.sink.split.i.i, label %if.end2.i.i

if.end2.i.i:                                      ; preds = %if.end.i.i
  %add.ptr.i.i = getelementptr inbounds i8, ptr %uresult, i64 16
  %1 = load i32, ptr %add.ptr.i.i, align 4
  %cmp3.not.i.i = icmp eq i32 %1, 1179407188
  br i1 %cmp3.not.i.i, label %invoke.cont, label %return.sink.split.i.i

return.sink.split.i.i:                            ; preds = %if.end2.i.i, %if.end.i.i
  %.sink.i.i = phi i32 [ 1, %if.end.i.i ], [ 3, %if.end2.i.i ]
  store i32 %.sink.i.i, ptr %status, align 4
  br label %cleanup.cont

invoke.cont:                                      ; preds = %if.end2.i.i, %invoke.cont
  %arrayctor.cur.idx = phi i64 [ %arrayctor.cur.add, %invoke.cont ], [ 0, %if.end2.i.i ]
  %arrayctor.cur.ptr = getelementptr inbounds i8, ptr %length4StackBuffer, i64 %arrayctor.cur.idx
  store ptr getelementptr inbounds ({ [13 x ptr] }, ptr @_ZTVN6icu_7513UnicodeStringE, i64 0, i32 0, i64 2), ptr %arrayctor.cur.ptr, align 16
  %fUnion2.i = getelementptr inbounds i8, ptr %arrayctor.cur.ptr, i64 8
  store i16 2, ptr %fUnion2.i, align 8
  %arrayctor.cur.add = add nuw nsw i64 %arrayctor.cur.idx, 64
  %arrayctor.done = icmp eq i64 %arrayctor.cur.add, 256
  br i1 %arrayctor.done, label %invoke.cont4, label %invoke.cont

invoke.cont4:                                     ; preds = %invoke.cont
  %arrayctor.end = getelementptr inbounds i8, ptr %length4StackBuffer, i64 256
  store ptr null, ptr %maybeOwner, align 8
  %call7 = invoke fastcc noundef ptr @_ZL17getUnicodeStringsPKPKDsPKiiPN6icu_7513UnicodeStringERNS5_10LocalArrayIS6_EER10UErrorCode(ptr noundef %strings, ptr noundef %stringLengths, i32 noundef %stringCount, ptr noundef nonnull %length4StackBuffer, ptr noundef nonnull align 8 dereferenceable(8) %maybeOwner, ptr noundef nonnull align 4 dereferenceable(4) %status)
          to label %invoke.cont6 unwind label %lpad5

invoke.cont6:                                     ; preds = %invoke.cont4
  %2 = load i32, ptr %status, align 4
  %cmp.i8 = icmp slt i32 %2, 1
  br i1 %cmp.i8, label %if.end12, label %cleanup

lpad5:                                            ; preds = %if.end12, %invoke.cont4
  %3 = landingpad { ptr, i32 }
          cleanup
  call void @_ZN6icu_7510LocalArrayINS_13UnicodeStringEED2Ev(ptr noundef nonnull align 8 dereferenceable(8) %maybeOwner) #10
  br label %arraydestroy.body23

if.end12:                                         ; preds = %invoke.cont6
  invoke void @_ZNK6icu_7513ListFormatter20formatStringsToValueEPKNS_13UnicodeStringEiR10UErrorCode(ptr nonnull sret(%"class.icu_75::FormattedList") align 8 %ref.tmp, ptr noundef nonnull align 8 dereferenceable(24) %listfmt, ptr noundef %call7, i32 noundef %stringCount, ptr noundef nonnull align 4 dereferenceable(4) %status)
          to label %invoke.cont13 unwind label %lpad5

invoke.cont13:                                    ; preds = %if.end12
  %fImpl = getelementptr inbounds i8, ptr %uresult, i64 24
  %call14 = call noundef nonnull align 8 dereferenceable(20) ptr @_ZN6icu_7513FormattedListaSEOS0_(ptr noundef nonnull align 8 dereferenceable(20) %fImpl, ptr noundef nonnull align 8 dereferenceable(20) %ref.tmp) #10
  call void @_ZN6icu_7513FormattedListD1Ev(ptr noundef nonnull align 8 dereferenceable(20) %ref.tmp) #10
  br label %cleanup

cleanup:                                          ; preds = %invoke.cont6, %invoke.cont13
  %4 = load ptr, ptr %maybeOwner, align 8
  %isnull.i = icmp eq ptr %4, null
  br i1 %isnull.i, label %arraydestroy.body17.preheader, label %delete.notnull.i

delete.notnull.i:                                 ; preds = %cleanup
  %5 = getelementptr inbounds i8, ptr %4, i64 -8
  %6 = load i64, ptr %5, align 8
  %arraydestroy.isempty.i = icmp eq i64 %6, 0
  br i1 %arraydestroy.isempty.i, label %arraydestroy.done2.i, label %arraydestroy.body.preheader.i

arraydestroy.body.preheader.i:                    ; preds = %delete.notnull.i
  %delete.end.i = getelementptr inbounds %"class.icu_75::UnicodeString", ptr %4, i64 %6
  br label %arraydestroy.body.i

arraydestroy.body.i:                              ; preds = %arraydestroy.body.i, %arraydestroy.body.preheader.i
  %arraydestroy.elementPast.i = phi ptr [ %arraydestroy.element.i, %arraydestroy.body.i ], [ %delete.end.i, %arraydestroy.body.preheader.i ]
  %arraydestroy.element.i = getelementptr inbounds i8, ptr %arraydestroy.elementPast.i, i64 -64
  call void @_ZN6icu_7513UnicodeStringD1Ev(ptr noundef nonnull align 8 dereferenceable(64) %arraydestroy.element.i) #10
  %arraydestroy.done.i = icmp eq ptr %arraydestroy.element.i, %4
  br i1 %arraydestroy.done.i, label %arraydestroy.done2.i, label %arraydestroy.body.i

arraydestroy.done2.i:                             ; preds = %arraydestroy.body.i, %delete.notnull.i
  call void @_ZN6icu_757UMemorydaEPv(ptr noundef nonnull %5) #10
  br label %arraydestroy.body17.preheader

arraydestroy.body17.preheader:                    ; preds = %cleanup, %arraydestroy.done2.i
  br label %arraydestroy.body17

arraydestroy.body17:                              ; preds = %arraydestroy.body17.preheader, %arraydestroy.body17
  %arraydestroy.elementPast18 = phi ptr [ %arraydestroy.element19, %arraydestroy.body17 ], [ %arrayctor.end, %arraydestroy.body17.preheader ]
  %arraydestroy.element19 = getelementptr inbounds i8, ptr %arraydestroy.elementPast18, i64 -64
  call void @_ZN6icu_7513UnicodeStringD1Ev(ptr noundef nonnull align 8 dereferenceable(64) %arraydestroy.element19) #10
  %arraydestroy.done20 = icmp eq ptr %arraydestroy.element19, %length4StackBuffer
  br i1 %arraydestroy.done20, label %cleanup.cont, label %arraydestroy.body17

cleanup.cont:                                     ; preds = %arraydestroy.body17, %return.sink.split.i.i, %entry
  ret void

arraydestroy.body23:                              ; preds = %arraydestroy.body23, %lpad5
  %arraydestroy.elementPast24 = phi ptr [ %arrayctor.end, %lpad5 ], [ %arraydestroy.element25, %arraydestroy.body23 ]
  %arraydestroy.element25 = getelementptr inbounds i8, ptr %arraydestroy.elementPast24, i64 -64
  call void @_ZN6icu_7513UnicodeStringD1Ev(ptr noundef nonnull align 8 dereferenceable(64) %arraydestroy.element25) #10
  %arraydestroy.done26 = icmp eq ptr %arraydestroy.element25, %length4StackBuffer
  br i1 %arraydestroy.done26, label %eh.resume, label %arraydestroy.body23

eh.resume:                                        ; preds = %arraydestroy.body23
  resume { ptr, i32 } %3
}